; Function Attrs: mustprogress uwtable
define hidden void @_ZN4LIEF5MachO8TrieNode6createERKNSt7__cxx1112basic_stringIcSt11char_traitsIcESaIcEEE(ptr dead_on_unwind noalias nocapture writable writeonly sret(%"class.std::unique_ptr.52") align 8 %0, ptr noundef nonnull align 8 dereferenceable(32) %1) local_unnamed_addr #3 align 2 personality ptr @__gxx_personality_v0 {
  %3 = alloca %"class.std::__cxx11::basic_string", align 8
  tail call void @llvm.experimental.noalias.scope.decl(metadata !9)
  call void @llvm.lifetime.start.p0(i64 32, ptr nonnull %3)
  %4 = tail call noalias noundef nonnull dereferenceable(120) ptr @_Znwm(i64 noundef 120) #21, !noalias !9
  invoke void @_ZNSt7__cxx1112basic_stringIcSt11char_traitsIcESaIcEEC1ERKS4_(ptr noundef nonnull align 8 dereferenceable(32) %3, ptr noundef nonnull align 8 dereferenceable(32) %1)
          to label %_ZSt11make_uniqueIN4LIEF5MachO8TrieNodeEJRKNSt7__cxx1112basic_stringIcSt11char_traitsIcESaIcEEEEENSt8__detail9_MakeUniqIT_E15__single_objectEDpOT0_.exit unwind label %5, !noalias !9

5:                                                ; preds = %2
  %6 = landingpad { ptr, i32 }
          cleanup
  call void @_ZdlPv(ptr noundef nonnull %4) #20, !noalias !9
  resume { ptr, i32 } %6

_ZSt11make_uniqueIN4LIEF5MachO8TrieNodeEJRKNSt7__cxx1112basic_stringIcSt11char_traitsIcESaIcEEEEENSt8__detail9_MakeUniqIT_E15__single_objectEDpOT0_.exit: ; preds = %2
  call void @_ZNSt7__cxx1112basic_stringIcSt11char_traitsIcESaIcEEC1EOS4_(ptr noundef nonnull align 8 dereferenceable(32) %4, ptr noundef nonnull align 8 dereferenceable(32) %3) #19, !noalias !9
  %7 = getelementptr inbounds i8, ptr %4, i64 32
  %8 = getelementptr inbounds i8, ptr %4, i64 80
  call void @llvm.memset.p0.i64(ptr noundef nonnull align 8 dereferenceable(48) %7, i8 0, i64 48, i1 false), !noalias !9
  call void @_ZNSt7__cxx1112basic_stringIcSt11char_traitsIcESaIcEEC1Ev(ptr noundef nonnull align 8 dereferenceable(32) %8) #19, !noalias !9
  %9 = getelementptr inbounds i8, ptr %4, i64 112
  store i32 0, ptr %9, align 8, !noalias !9
  %10 = getelementptr inbounds i8, ptr %4, i64 116
  store i8 0, ptr %10, align 4, !noalias !9
  %11 = getelementptr inbounds i8, ptr %4, i64 117
  store i8 0, ptr %11, align 1, !noalias !9
  store ptr %4, ptr %0, align 8, !alias.scope !9
  call void @_ZNSt7__cxx1112basic_stringIcSt11char_traitsIcESaIcEED1Ev(ptr noundef nonnull align 8 dereferenceable(32) %3) #19, !noalias !9
  call void @llvm.lifetime.end.p0(i64 32, ptr nonnull %3)
  ret void
}